target datalayout = "e-m:e-p270:32:32-p271:32:32-p272:64:64-i64:64-i128:128-f80:128-n8:16:32:64-S128"
target triple = "x86_64-unknown-linux-gnu"

%class.enum2bv_rewriter = type { ptr }
%"struct.enum2bv_rewriter::imp" = type { ptr, %class.params_ref, %class.obj_map, %class.obj_map, %class.obj_map.0, %class.ref_vector, %"class.datatype::util", %class.ref_vector.37, %class.ref_vector.37, %class.ref_vector, %class.svector, i32, ptr, %"struct.enum2bv_rewriter::imp::rw" }
%class.params_ref = type { ptr }
%class.obj_map = type { %class.core_hashtable }
%class.core_hashtable = type <{ ptr, i32, i32, i32, [4 x i8] }>
%class.obj_map.0 = type { %class.core_hashtable.1 }
%class.core_hashtable.1 = type <{ ptr, i32, i32, i32, [4 x i8] }>
%"class.datatype::util" = type { ptr, i32, ptr, %class.obj_map.5, %class.obj_map.10, %class.obj_map.15, %class.obj_map, %class.obj_map, %class.obj_map, %class.obj_map.20, %class.obj_map.20, %class.obj_map.20, %class.ref_vector.25, %class.ref_vector_core.30, %class.ptr_vector.33, i32, %class.ptr_vector.35 }
%class.obj_map.5 = type { %class.core_hashtable.6 }
%class.core_hashtable.6 = type <{ ptr, i32, i32, i32, [4 x i8] }>
%class.obj_map.10 = type { %class.core_hashtable.11 }
%class.core_hashtable.11 = type <{ ptr, i32, i32, i32, [4 x i8] }>
%class.obj_map.15 = type { %class.core_hashtable.16 }
%class.core_hashtable.16 = type <{ ptr, i32, i32, i32, [4 x i8] }>
%class.obj_map.20 = type { %class.core_hashtable.21 }
%class.core_hashtable.21 = type <{ ptr, i32, i32, i32, [4 x i8] }>
%class.ref_vector.25 = type { %class.ref_vector_core.26 }
%class.ref_vector_core.26 = type { %class.ref_manager_wrapper.27, %class.ptr_vector.28 }
%class.ref_manager_wrapper.27 = type { ptr }
%class.ptr_vector.28 = type { %class.vector.29 }
%class.vector.29 = type { ptr }
%class.ref_vector_core.30 = type { %class.ptr_vector.31 }
%class.ptr_vector.31 = type { %class.vector.32 }
%class.vector.32 = type { ptr }
%class.ptr_vector.33 = type { %class.vector.34 }
%class.vector.34 = type { ptr }
%class.ptr_vector.35 = type { %class.vector.36 }
%class.vector.36 = type { ptr }
%class.ref_vector.37 = type { %class.ref_vector_core.38 }
%class.ref_vector_core.38 = type { %class.ref_manager_wrapper.39, %class.ptr_vector.40 }
%class.ref_manager_wrapper.39 = type { ptr }
%class.ptr_vector.40 = type { %class.vector.41 }
%class.vector.41 = type { ptr }
%class.ref_vector = type { %class.ref_vector_core }
%class.ref_vector_core = type { %class.ref_manager_wrapper, %class.ptr_vector }
%class.ref_manager_wrapper = type { ptr }
%class.ptr_vector = type { %class.vector }
%class.vector = type { ptr }
%class.svector = type { %class.vector.42 }
%class.vector.42 = type { ptr }
%"struct.enum2bv_rewriter::imp::rw" = type { %class.rewriter_tpl, %"struct.enum2bv_rewriter::imp::rw_cfg" }
%class.rewriter_tpl = type { %class.rewriter_core, ptr, i32, %class.ptr_vector, %class.var_shifter, %class.inv_var_shifter, %class.obj_ref, %class.obj_ref.56, %class.obj_ref.56, %class.svector }
%class.rewriter_core = type { ptr, ptr, i8, i8, %class.ptr_vector.43, ptr, %class.svector.45, %class.ref_vector, %class.ptr_vector.43, ptr, %class.ref_vector.47, %class.obj_hashtable, ptr, i32, %class.svector.54 }
%class.svector.45 = type { %class.vector.46 }
%class.vector.46 = type { ptr }
%class.ptr_vector.43 = type { %class.vector.44 }
%class.vector.44 = type { ptr }
%class.ref_vector.47 = type { %class.ref_vector_core.48 }
%class.ref_vector_core.48 = type { %class.ref_manager_wrapper.49, %class.ptr_vector.50 }
%class.ref_manager_wrapper.49 = type { ptr }
%class.ptr_vector.50 = type { %class.vector.51 }
%class.vector.51 = type { ptr }
%class.obj_hashtable = type { %class.core_hashtable.base.53, [4 x i8] }
%class.core_hashtable.base.53 = type <{ ptr, i32, i32, i32 }>
%class.svector.54 = type { %class.vector.55 }
%class.vector.55 = type { ptr }
%class.var_shifter = type <{ %class.var_shifter_core, i32, i32, i32, [4 x i8] }>
%class.var_shifter_core = type { %class.rewriter_core }
%class.inv_var_shifter = type <{ %class.var_shifter_core, i32, [4 x i8] }>
%class.obj_ref = type { ptr, ptr }
%class.obj_ref.56 = type { ptr, ptr }
%"struct.enum2bv_rewriter::imp::rw_cfg" = type { ptr, ptr, %"class.datatype::util", %class.bv_util, i8, i32, %class.ptr_buffer }
%class.bv_util = type { %class.bv_recognizers, ptr, ptr }
%class.bv_recognizers = type { i32 }
%class.ptr_buffer = type { %class.buffer }
%class.buffer = type { ptr, i32, i32, [16 x %"union.std::aligned_storage<8, 8>::type"] }
%"union.std::aligned_storage<8, 8>::type" = type { [8 x i8] }

; Function Attrs: mustprogress nounwind uwtable
define linkonce_odr hidden noundef i32 @_ZNK6vectorIP9func_declLb0EjE4sizeEv(ptr noundef nonnull align 8 dereferenceable(8) %this) #5 comdat align 2 {
entry:
  %retval = alloca i32, align 4
  %this.addr = alloca ptr, align 8
  store ptr %this, ptr %this.addr, align 8
  %this1 = load ptr, ptr %this.addr, align 8
  %m_data = getelementptr inbounds %class.vector.41, ptr %this1, i32 0, i32 0
  %0 = load ptr, ptr %m_data, align 8
  %cmp = icmp eq ptr %0, null
  br i1 %cmp, label %if.then, label %if.end

if.then:                                          ; preds = %entry
  store i32 0, ptr %retval, align 4
  br label %return

if.end:                                           ; preds = %entry
  %m_data2 = getelementptr inbounds %class.vector.41, ptr %this1, i32 0, i32 0
  %1 = load ptr, ptr %m_data2, align 8
  %arrayidx = getelementptr inbounds i32, ptr %1, i64 -1
  %2 = load i32, ptr %arrayidx, align 4
  store i32 %2, ptr %retval, align 4
  br label %return

return:                                           ; preds = %if.end, %if.then
  %3 = load i32, ptr %retval, align 4
  ret i32 %3
}

; Function Attrs: mustprogress uwtable
define linkonce_odr hidden noundef nonnull align 8 dereferenceable(8) ptr @_ZN6vectorIjLb0EjE9push_backEOj(ptr noundef nonnull align 8 dereferenceable(8) %this, ptr noundef nonnull align 4 dereferenceable(4) %elem) #4 comdat align 2 {
entry:
  %this.addr = alloca ptr, align 8
  %elem.addr = alloca ptr, align 8
  store ptr %this, ptr %this.addr, align 8
  store ptr %elem, ptr %elem.addr, align 8
  %this1 = load ptr, ptr %this.addr, align 8
  %m_data = getelementptr inbounds %class.vector.42, ptr %this1, i32 0, i32 0
  %0 = load ptr, ptr %m_data, align 8
  %cmp = icmp eq ptr %0, null
  br i1 %cmp, label %if.then, label %lor.lhs.false

lor.lhs.false:                                    ; preds = %entry
  %m_data2 = getelementptr inbounds %class.vector.42, ptr %this1, i32 0, i32 0
  %1 = load ptr, ptr %m_data2, align 8
  %arrayidx = getelementptr inbounds i32, ptr %1, i64 -1
  %2 = load i32, ptr %arrayidx, align 4
  %m_data3 = getelementptr inbounds %class.vector.42, ptr %this1, i32 0, i32 0
  %3 = load ptr, ptr %m_data3, align 8
  %arrayidx4 = getelementptr inbounds i32, ptr %3, i64 -2
  %4 = load i32, ptr %arrayidx4, align 4
  %cmp5 = icmp eq i32 %2, %4
  br i1 %cmp5, label %if.then, label %if.end

if.then:                                          ; preds = %lor.lhs.false, %entry
  call void @_ZN6vectorIjLb0EjE13expand_vectorEv(ptr noundef nonnull align 8 dereferenceable(8) %this1)
  br label %if.end

if.end:                                           ; preds = %if.then, %lor.lhs.false
  %m_data6 = getelementptr inbounds %class.vector.42, ptr %this1, i32 0, i32 0
  %5 = load ptr, ptr %m_data6, align 8
  %m_data7 = getelementptr inbounds %class.vector.42, ptr %this1, i32 0, i32 0
  %6 = load ptr, ptr %m_data7, align 8
  %arrayidx8 = getelementptr inbounds i32, ptr %6, i64 -1
  %7 = load i32, ptr %arrayidx8, align 4
  %idx.ext = zext i32 %7 to i64
  %add.ptr = getelementptr inbounds i32, ptr %5, i64 %idx.ext
  %8 = load ptr, ptr %elem.addr, align 8
  %9 = load i32, ptr %8, align 4
  store i32 %9, ptr %add.ptr, align 4
  %m_data9 = getelementptr inbounds %class.vector.42, ptr %this1, i32 0, i32 0
  %10 = load ptr, ptr %m_data9, align 8
  %arrayidx10 = getelementptr inbounds i32, ptr %10, i64 -1
  %11 = load i32, ptr %arrayidx10, align 4
  %inc = add i32 %11, 1
  store i32 %inc, ptr %arrayidx10, align 4
  ret ptr %this1
}

; Function Attrs: mustprogress nounwind uwtable
define linkonce_odr hidden noundef i32 @_ZNK15ref_vector_coreI9func_decl19ref_manager_wrapperIS0_11ast_managerEE4sizeEv(ptr noundef nonnull align 8 dereferenceable(16) %this) #5 comdat align 2 {
entry:
  %this.addr = alloca ptr, align 8
  store ptr %this, ptr %this.addr, align 8
  %this1 = load ptr, ptr %this.addr, align 8
  %m_nodes = getelementptr inbounds %class.ref_vector_core.38, ptr %this1, i32 0, i32 1
  %call = call noundef i32 @_ZNK6vectorIP9func_declLb0EjE4sizeEv(ptr noundef nonnull align 8 dereferenceable(8) %m_nodes)
  ret i32 %call
}

; Function Attrs: mustprogress uwtable
define linkonce_odr hidden void @_ZN16enum2bv_rewriter3imp4pushEv(ptr noundef nonnull align 8 dereferenceable(1480) %this) #4 comdat align 2 {
entry:
  %this.addr = alloca ptr, align 8
  %ref.tmp = alloca i32, align 4
  store ptr %this, ptr %this.addr, align 8
  %this1 = load ptr, ptr %this.addr, align 8
  %m_enum_consts_lim = getelementptr inbounds %"struct.enum2bv_rewriter::imp", ptr %this1, i32 0, i32 10
  %m_enum_consts = getelementptr inbounds %"struct.enum2bv_rewriter::imp", ptr %this1, i32 0, i32 7
  %call = call noundef i32 @_ZNK15ref_vector_coreI9func_decl19ref_manager_wrapperIS0_11ast_managerEE4sizeEv(ptr noundef nonnull align 8 dereferenceable(16) %m_enum_consts)
  store i32 %call, ptr %ref.tmp, align 4
  %call2 = call noundef nonnull align 8 dereferenceable(8) ptr @_ZN6vectorIjLb0EjE9push_backEOj(ptr noundef nonnull align 8 dereferenceable(8) %m_enum_consts_lim, ptr noundef nonnull align 4 dereferenceable(4) %ref.tmp)
  ret void
}

; Function Attrs: mustprogress uwtable
define hidden void @_ZN16enum2bv_rewriter4pushEv(ptr noundef nonnull align 8 dereferenceable(8) %this) #4 align 2 {
entry:
  %this.addr = alloca ptr, align 8
  store ptr %this, ptr %this.addr, align 8
  %this1 = load ptr, ptr %this.addr, align 8
  %m_imp = getelementptr inbounds %class.enum2bv_rewriter, ptr %this1, i32 0, i32 0
  %0 = load ptr, ptr %m_imp, align 8
  call void @_ZN16enum2bv_rewriter3imp4pushEv(ptr noundef nonnull align 8 dereferenceable(1480) %0)
  ret void
}