; Function Attrs: mustprogress uwtable
define hidden void @_ZN16enum2bv_rewriter4pushEv(ptr nocapture noundef nonnull readonly align 8 dereferenceable(8) %this) local_unnamed_addr #3 align 2 {
entry:
  %0 = load ptr, ptr %this, align 8
  %m_enum_consts_lim.i = getelementptr inbounds i8, ptr %0, i64 440
  %m_nodes.i.i = getelementptr inbounds i8, ptr %0, i64 400
  %1 = load ptr, ptr %m_nodes.i.i, align 8
  %cmp.i.i.i = icmp eq ptr %1, null
  br i1 %cmp.i.i.i, label %_ZNK15ref_vector_coreI9func_decl19ref_manager_wrapperIS0_11ast_managerEE4sizeEv.exit.i, label %if.end.i.i.i

if.end.i.i.i:                                     ; preds = %entry
  %arrayidx.i.i.i = getelementptr inbounds i8, ptr %1, i64 -4
  %2 = load i32, ptr %arrayidx.i.i.i, align 4
  br label %_ZNK15ref_vector_coreI9func_decl19ref_manager_wrapperIS0_11ast_managerEE4sizeEv.exit.i

_ZNK15ref_vector_coreI9func_decl19ref_manager_wrapperIS0_11ast_managerEE4sizeEv.exit.i: ; preds = %if.end.i.i.i, %entry
  %retval.0.i.i.i = phi i32 [ %2, %if.end.i.i.i ], [ 0, %entry ]
  %3 = load ptr, ptr %m_enum_consts_lim.i, align 8
  %cmp.i.i = icmp eq ptr %3, null
  br i1 %cmp.i.i, label %if.then.i.i, label %lor.lhs.false.i.i

lor.lhs.false.i.i:                                ; preds = %_ZNK15ref_vector_coreI9func_decl19ref_manager_wrapperIS0_11ast_managerEE4sizeEv.exit.i
  %arrayidx.i.i = getelementptr inbounds i8, ptr %3, i64 -4
  %4 = load i32, ptr %arrayidx.i.i, align 4
  %arrayidx4.i.i = getelementptr inbounds i8, ptr %3, i64 -8
  %5 = load i32, ptr %arrayidx4.i.i, align 4
  %cmp5.i.i = icmp eq i32 %4, %5
  br i1 %cmp5.i.i, label %if.then.i.i, label %_ZN16enum2bv_rewriter3imp4pushEv.exit

if.then.i.i:                                      ; preds = %lor.lhs.false.i.i, %_ZNK15ref_vector_coreI9func_decl19ref_manager_wrapperIS0_11ast_managerEE4sizeEv.exit.i
  tail call void @_ZN6vectorIjLb0EjE13expand_vectorEv(ptr noundef nonnull align 8 dereferenceable(8) %m_enum_consts_lim.i)
  %.pre.i.i = load ptr, ptr %m_enum_consts_lim.i, align 8
  %arrayidx8.phi.trans.insert.i.i = getelementptr inbounds i8, ptr %.pre.i.i, i64 -4
  %.pre1.i.i = load i32, ptr %arrayidx8.phi.trans.insert.i.i, align 4
  br label %_ZN16enum2bv_rewriter3imp4pushEv.exit

_ZN16enum2bv_rewriter3imp4pushEv.exit:            ; preds = %lor.lhs.false.i.i, %if.then.i.i
  %6 = phi i32 [ %.pre1.i.i, %if.then.i.i ], [ %4, %lor.lhs.false.i.i ]
  %7 = phi ptr [ %.pre.i.i, %if.then.i.i ], [ %3, %lor.lhs.false.i.i ]
  %idx.ext.i.i = zext i32 %6 to i64
  %add.ptr.i.i = getelementptr inbounds i32, ptr %7, i64 %idx.ext.i.i
  store i32 %retval.0.i.i.i, ptr %add.ptr.i.i, align 4
  %8 = load ptr, ptr %m_enum_consts_lim.i, align 8
  %arrayidx10.i.i = getelementptr inbounds i8, ptr %8, i64 -4
  %9 = load i32, ptr %arrayidx10.i.i, align 4
  %inc.i.i = add i32 %9, 1
  store i32 %inc.i.i, ptr %arrayidx10.i.i, align 4
  ret void
}